target datalayout = "e-m:e-p270:32:32-p271:32:32-p272:64:64-i64:64-i128:128-f80:128-n8:16:32:64-S128"
target triple = "x86_64-pc-linux-gnu"

%struct.URLContext = type { ptr, ptr, ptr, ptr, i32, i32, i32, i32, %struct.AVIOInterruptCB, i64, ptr, ptr, i32 }
%struct.AVIOInterruptCB = type { ptr, ptr }
%struct.URLProtocol = type { ptr, ptr, ptr, ptr, ptr, ptr, ptr, ptr, ptr, ptr, ptr, ptr, ptr, ptr, ptr, ptr, i32, i32, ptr, ptr, ptr, ptr, ptr, ptr, ptr }

; Function Attrs: nounwind uwtable
define i32 @ffurl_get_short_seek(ptr noundef %0) #1 {
  %2 = alloca i32, align 4
  %3 = alloca ptr, align 8
  %4 = alloca ptr, align 8
  %5 = alloca i32, align 4
  store ptr %0, ptr %3, align 8, !tbaa !4
  call void @llvm.lifetime.start.p0(i64 8, ptr %4) #10
  %6 = load ptr, ptr %3, align 8, !tbaa !4
  store ptr %6, ptr %4, align 8, !tbaa !22
  %7 = load ptr, ptr %4, align 8, !tbaa !22
  %8 = icmp ne ptr %7, null
  br i1 %8, label %9, label %21

9:                                                ; preds = %1
  %10 = load ptr, ptr %4, align 8, !tbaa !22
  %11 = getelementptr inbounds nuw %struct.URLContext, ptr %10, i32 0, i32 1
  %12 = load ptr, ptr %11, align 8, !tbaa !38
  %13 = icmp ne ptr %12, null
  br i1 %13, label %14, label %21

14:                                               ; preds = %9
  %15 = load ptr, ptr %4, align 8, !tbaa !22
  %16 = getelementptr inbounds nuw %struct.URLContext, ptr %15, i32 0, i32 1
  %17 = load ptr, ptr %16, align 8, !tbaa !38
  %18 = getelementptr inbounds nuw %struct.URLProtocol, ptr %17, i32 0, i32 13
  %19 = load ptr, ptr %18, align 8, !tbaa !88
  %20 = icmp ne ptr %19, null
  br i1 %20, label %22, label %21

21:                                               ; preds = %14, %9, %1
  store i32 -38, ptr %2, align 4
  store i32 1, ptr %5, align 4
  br label %30

22:                                               ; preds = %14
  %23 = load ptr, ptr %4, align 8, !tbaa !22
  %24 = getelementptr inbounds nuw %struct.URLContext, ptr %23, i32 0, i32 1
  %25 = load ptr, ptr %24, align 8, !tbaa !38
  %26 = getelementptr inbounds nuw %struct.URLProtocol, ptr %25, i32 0, i32 13
  %27 = load ptr, ptr %26, align 8, !tbaa !88
  %28 = load ptr, ptr %4, align 8, !tbaa !22
  %29 = call i32 %27(ptr noundef %28)
  store i32 %29, ptr %2, align 4
  store i32 1, ptr %5, align 4
  br label %30

30:                                               ; preds = %22, %21
  call void @llvm.lifetime.end.p0(i64 8, ptr %4) #10
  %31 = load i32, ptr %2, align 4
  ret i32 %31
}